; Function Attrs: nounwind uwtable
define dso_local range(i64 0, 2) i64 @pg_stat_have_stats(ptr noundef readonly captures(none) %0) local_unnamed_addr #0 {
  %2 = getelementptr inbounds nuw i8, ptr %0, i64 32
  %3 = load i64, ptr %2, align 8
  %4 = inttoptr i64 %3 to ptr
  %5 = tail call ptr @pg_detoast_datum(ptr noundef %4) #9
  %6 = tail call ptr @text_to_cstring(ptr noundef %5) #9
  %7 = getelementptr inbounds nuw i8, ptr %0, i64 48
  %8 = load i64, ptr %7, align 8
  %9 = trunc i64 %8 to i32
  %10 = getelementptr inbounds nuw i8, ptr %0, i64 64
  %11 = load i64, ptr %10, align 8
  %12 = tail call i32 @pgstat_get_kind_from_str(ptr noundef %6) #9
  %13 = tail call zeroext i1 @pgstat_have_entry(i32 noundef %12, i32 noundef %9, i64 noundef %11) #9
  %14 = zext i1 %13 to i64
  ret i64 %14
}